; Function Attrs: mustprogress nounwind uwtable
define hidden void @_ZN10ciTypeFlow6JsrSetC2Ei(ptr nocapture noundef nonnull writeonly align 8 dereferenceable(32) %0, i32 noundef %1) unnamed_addr #0 align 2 {
  %3 = getelementptr inbounds i8, ptr %0, i64 8
  %4 = tail call noundef ptr @_ZN30GrowableArrayResourceAllocator8allocateEii(i32 noundef %1, i32 noundef 8) #14
  store i32 0, ptr %3, align 8
  %5 = getelementptr inbounds i8, ptr %0, i64 12
  store i32 %1, ptr %5, align 4
  %6 = getelementptr inbounds i8, ptr %0, i64 16
  store ptr %4, ptr %6, align 8
  %7 = icmp sgt i32 %1, 0
  br i1 %7, label %.lr.ph16.preheader.i.i, label %_ZN13GrowableArrayIPN10ciTypeFlow9JsrRecordEEC2EiiRKS2_.exit

.lr.ph16.preheader.i.i:                           ; preds = %2
  %8 = add nsw i32 %1, -1
  %9 = zext nneg i32 %8 to i64
  %10 = shl nuw nsw i64 %9, 3
  %11 = add nuw nsw i64 %10, 8
  tail call void @llvm.memset.p0.i64(ptr noundef nonnull align 8 dereferenceable(1) %4, i8 0, i64 %11, i1 false)
  br label %_ZN13GrowableArrayIPN10ciTypeFlow9JsrRecordEEC2EiiRKS2_.exit

_ZN13GrowableArrayIPN10ciTypeFlow9JsrRecordEEC2EiiRKS2_.exit: ; preds = %2, %.lr.ph16.preheader.i.i
  %12 = getelementptr inbounds i8, ptr %0, i64 24
  store i64 0, ptr %12, align 8
  ret void
}